; ModuleID = '36/282.c'
source_filename = "36/282.c"
target datalayout = "e-m:e-p270:32:32-p271:32:32-p272:64:64-i64:64-f80:128-n8:16:32:64-S128"
target triple = "x86_64-pc-linux-gnu"

@.str = private unnamed_addr constant [3 x i8] c"NO\00", align 1
@.str.1 = private unnamed_addr constant [4 x i8] c"YES\00", align 1

; Function Attrs: noinline nounwind uwtable
define dso_local i32 @main() #0 {
  %1 = alloca i32, align 4
  %2 = alloca [100 x i32], align 16
  %3 = alloca [100 x i32], align 16
  %4 = alloca i8, align 1
  %5 = alloca i32, align 4
  %6 = alloca i32, align 4
  %7 = alloca i32, align 4
  %8 = alloca i32, align 4
  %9 = alloca i32, align 4
  %10 = alloca i32, align 4
  store i32 0, i32* %1, align 4
  store i32 0, i32* %5, align 4
  br label %11

11:                                               ; preds = %22, %0
  %12 = call i32 @getchar()
  %13 = trunc i32 %12 to i8
  store i8 %13, i8* %4, align 1
  %14 = sext i8 %13 to i32
  %15 = icmp ne i32 %14, 32
  br i1 %15, label %16, label %25

16:                                               ; preds = %11
  %17 = load i8, i8* %4, align 1
  %18 = sext i8 %17 to i32
  %19 = load i32, i32* %5, align 4
  %20 = sext i32 %19 to i64
  %21 = getelementptr inbounds [100 x i32], [100 x i32]* %2, i64 0, i64 %20
  store i32 %18, i32* %21, align 4
  br label %22

22:                                               ; preds = %16
  %23 = load i32, i32* %5, align 4
  %24 = add nsw i32 %23, 1
  store i32 %24, i32* %5, align 4
  br label %11

25:                                               ; preds = %11
  store i32 0, i32* %6, align 4
  br label %26

26:                                               ; preds = %37, %25
  %27 = call i32 @getchar()
  %28 = trunc i32 %27 to i8
  store i8 %28, i8* %4, align 1
  %29 = sext i8 %28 to i32
  %30 = icmp ne i32 %29, 10
  br i1 %30, label %31, label %40

31:                                               ; preds = %26
  %32 = load i8, i8* %4, align 1
  %33 = sext i8 %32 to i32
  %34 = load i32, i32* %6, align 4
  %35 = sext i32 %34 to i64
  %36 = getelementptr inbounds [100 x i32], [100 x i32]* %3, i64 0, i64 %35
  store i32 %33, i32* %36, align 4
  br label %37

37:                                               ; preds = %31
  %38 = load i32, i32* %6, align 4
  %39 = add nsw i32 %38, 1
  store i32 %39, i32* %6, align 4
  br label %26

40:                                               ; preds = %26
  %41 = load i32, i32* %5, align 4
  %42 = load i32, i32* %6, align 4
  %43 = icmp ne i32 %41, %42
  br i1 %43, label %44, label %46

44:                                               ; preds = %40
  %45 = call i32 (i8*, ...) @printf(i8* getelementptr inbounds ([3 x i8], [3 x i8]* @.str, i64 0, i64 0))
  br label %201

46:                                               ; preds = %40
  store i32 0, i32* %8, align 4
  br label %47

47:                                               ; preds = %88, %46
  %48 = load i32, i32* %8, align 4
  %49 = load i32, i32* %5, align 4
  %50 = sub nsw i32 %49, 1
  %51 = icmp slt i32 %48, %50
  br i1 %51, label %52, label %91

52:                                               ; preds = %47
  %53 = load i32, i32* %8, align 4
  %54 = add nsw i32 %53, 1
  %55 = sext i32 %54 to i64
  %56 = getelementptr inbounds [100 x i32], [100 x i32]* %2, i64 0, i64 %55
  %57 = load i32, i32* %56, align 4
  %58 = load i32, i32* %8, align 4
  %59 = sext i32 %58 to i64
  %60 = getelementptr inbounds [100 x i32], [100 x i32]* %2, i64 0, i64 %59
  %61 = load i32, i32* %60, align 4
  %62 = icmp slt i32 %57, %61
  br i1 %62, label %63, label %87

63:                                               ; preds = %52
  %64 = load i32, i32* %8, align 4
  %65 = sext i32 %64 to i64
  %66 = getelementptr inbounds [100 x i32], [100 x i32]* %2, i64 0, i64 %65
  %67 = load i32, i32* %66, align 4
  store i32 %67, i32* %9, align 4
  %68 = load i32, i32* %8, align 4
  %69 = add nsw i32 %68, 1
  %70 = sext i32 %69 to i64
  %71 = getelementptr inbounds [100 x i32], [100 x i32]* %2, i64 0, i64 %70
  %72 = load i32, i32* %71, align 4
  %73 = load i32, i32* %8, align 4
  %74 = sext i32 %73 to i64
  %75 = getelementptr inbounds [100 x i32], [100 x i32]* %2, i64 0, i64 %74
  store i32 %72, i32* %75, align 4
  %76 = load i32, i32* %9, align 4
  %77 = load i32, i32* %8, align 4
  %78 = add nsw i32 %77, 1
  %79 = sext i32 %78 to i64
  %80 = getelementptr inbounds [100 x i32], [100 x i32]* %2, i64 0, i64 %79
  store i32 %76, i32* %80, align 4
  %81 = load i32, i32* %8, align 4
  %82 = icmp ne i32 %81, 0
  br i1 %82, label %83, label %86

83:                                               ; preds = %63
  %84 = load i32, i32* %8, align 4
  %85 = sub nsw i32 %84, 2
  store i32 %85, i32* %8, align 4
  br label %86

86:                                               ; preds = %83, %63
  br label %87

87:                                               ; preds = %86, %52
  br label %88

88:                                               ; preds = %87
  %89 = load i32, i32* %8, align 4
  %90 = add nsw i32 %89, 1
  store i32 %90, i32* %8, align 4
  br label %47

91:                                               ; preds = %47
  store i32 0, i32* %7, align 4
  br label %92

92:                                               ; preds = %133, %91
  %93 = load i32, i32* %7, align 4
  %94 = load i32, i32* %5, align 4
  %95 = sub nsw i32 %94, 1
  %96 = icmp slt i32 %93, %95
  br i1 %96, label %97, label %136

97:                                               ; preds = %92
  %98 = load i32, i32* %7, align 4
  %99 = add nsw i32 %98, 1
  %100 = sext i32 %99 to i64
  %101 = getelementptr inbounds [100 x i32], [100 x i32]* %3, i64 0, i64 %100
  %102 = load i32, i32* %101, align 4
  %103 = load i32, i32* %7, align 4
  %104 = sext i32 %103 to i64
  %105 = getelementptr inbounds [100 x i32], [100 x i32]* %3, i64 0, i64 %104
  %106 = load i32, i32* %105, align 4
  %107 = icmp slt i32 %102, %106
  br i1 %107, label %108, label %132

108:                                              ; preds = %97
  %109 = load i32, i32* %7, align 4
  %110 = sext i32 %109 to i64
  %111 = getelementptr inbounds [100 x i32], [100 x i32]* %3, i64 0, i64 %110
  %112 = load i32, i32* %111, align 4
  store i32 %112, i32* %9, align 4
  %113 = load i32, i32* %7, align 4
  %114 = add nsw i32 %113, 1
  %115 = sext i32 %114 to i64
  %116 = getelementptr inbounds [100 x i32], [100 x i32]* %3, i64 0, i64 %115
  %117 = load i32, i32* %116, align 4
  %118 = load i32, i32* %7, align 4
  %119 = sext i32 %118 to i64
  %120 = getelementptr inbounds [100 x i32], [100 x i32]* %3, i64 0, i64 %119
  store i32 %117, i32* %120, align 4
  %121 = load i32, i32* %9, align 4
  %122 = load i32, i32* %7, align 4
  %123 = add nsw i32 %122, 1
  %124 = sext i32 %123 to i64
  %125 = getelementptr inbounds [100 x i32], [100 x i32]* %3, i64 0, i64 %124
  store i32 %121, i32* %125, align 4
  %126 = load i32, i32* %7, align 4
  %127 = icmp ne i32 %126, 0
  br i1 %127, label %128, label %131

128:                                              ; preds = %108
  %129 = load i32, i32* %7, align 4
  %130 = sub nsw i32 %129, 2
  store i32 %130, i32* %7, align 4
  br label %131

131:                                              ; preds = %128, %108
  br label %132

132:                                              ; preds = %131, %97
  br label %133

133:                                              ; preds = %132
  %134 = load i32, i32* %7, align 4
  %135 = add nsw i32 %134, 1
  store i32 %135, i32* %7, align 4
  br label %92

136:                                              ; preds = %92
  store i32 0, i32* %10, align 4
  br label %137

137:                                              ; preds = %153, %136
  %138 = load i32, i32* %10, align 4
  %139 = load i32, i32* %5, align 4
  %140 = icmp slt i32 %138, %139
  br i1 %140, label %141, label %156

141:                                              ; preds = %137
  %142 = load i32, i32* %10, align 4
  %143 = sext i32 %142 to i64
  %144 = getelementptr inbounds [100 x i32], [100 x i32]* %2, i64 0, i64 %143
  %145 = load i32, i32* %144, align 4
  %146 = load i32, i32* %10, align 4
  %147 = sext i32 %146 to i64
  %148 = getelementptr inbounds [100 x i32], [100 x i32]* %3, i64 0, i64 %147
  %149 = load i32, i32* %148, align 4
  %150 = icmp ne i32 %145, %149
  br i1 %150, label %151, label %152

151:                                              ; preds = %141
  br label %156

152:                                              ; preds = %141
  br label %153

153:                                              ; preds = %152
  %154 = load i32, i32* %10, align 4
  %155 = add nsw i32 %154, 1
  store i32 %155, i32* %10, align 4
  br label %137

156:                                              ; preds = %151, %137
  %157 = load i32, i32* %10, align 4
  %158 = load i32, i32* %5, align 4
  %159 = icmp ne i32 %157, %158
  br i1 %159, label %160, label %162

160:                                              ; preds = %156
  %161 = call i32 (i8*, ...) @printf(i8* getelementptr inbounds ([3 x i8], [3 x i8]* @.str, i64 0, i64 0))
  br label %200

162:                                              ; preds = %156
  %163 = load i32, i32* %10, align 4
  %164 = load i32, i32* %5, align 4
  %165 = icmp eq i32 %163, %164
  br i1 %165, label %166, label %180

166:                                              ; preds = %162
  %167 = load i32, i32* %5, align 4
  %168 = sub nsw i32 %167, 1
  %169 = sext i32 %168 to i64
  %170 = getelementptr inbounds [100 x i32], [100 x i32]* %2, i64 0, i64 %169
  %171 = load i32, i32* %170, align 4
  %172 = load i32, i32* %5, align 4
  %173 = sub nsw i32 %172, 1
  %174 = sext i32 %173 to i64
  %175 = getelementptr inbounds [100 x i32], [100 x i32]* %3, i64 0, i64 %174
  %176 = load i32, i32* %175, align 4
  %177 = icmp ne i32 %171, %176
  br i1 %177, label %178, label %180

178:                                              ; preds = %166
  %179 = call i32 (i8*, ...) @printf(i8* getelementptr inbounds ([3 x i8], [3 x i8]* @.str, i64 0, i64 0))
  br label %199

180:                                              ; preds = %166, %162
  %181 = load i32, i32* %10, align 4
  %182 = load i32, i32* %5, align 4
  %183 = icmp eq i32 %181, %182
  br i1 %183, label %184, label %198

184:                                              ; preds = %180
  %185 = load i32, i32* %5, align 4
  %186 = sub nsw i32 %185, 1
  %187 = sext i32 %186 to i64
  %188 = getelementptr inbounds [100 x i32], [100 x i32]* %2, i64 0, i64 %187
  %189 = load i32, i32* %188, align 4
  %190 = load i32, i32* %5, align 4
  %191 = sub nsw i32 %190, 1
  %192 = sext i32 %191 to i64
  %193 = getelementptr inbounds [100 x i32], [100 x i32]* %3, i64 0, i64 %192
  %194 = load i32, i32* %193, align 4
  %195 = icmp eq i32 %189, %194
  br i1 %195, label %196, label %198

196:                                              ; preds = %184
  %197 = call i32 (i8*, ...) @printf(i8* getelementptr inbounds ([4 x i8], [4 x i8]* @.str.1, i64 0, i64 0))
  br label %198

198:                                              ; preds = %196, %184, %180
  br label %199

199:                                              ; preds = %198, %178
  br label %200

200:                                              ; preds = %199, %160
  br label %201

201:                                              ; preds = %200, %44
  ret i32 0
}

declare dso_local i32 @getchar() #1

declare dso_local i32 @printf(i8*, ...) #1


!llvm.module.flags = !{!0}
!llvm.ident = !{!1}

!0 = !{i32 1, !"wchar_size", i32 4}
!1 = !{!"clang version 10.0.0-4ubuntu1 "}
